; Function Attrs: mustprogress nounwind uwtable
define hidden void @_ZN7testing8internal24HasNewFatalFailureHelperD2Ev(ptr noundef nonnull align 8 captures(none) dereferenceable(24) initializes((0, 8)) %0) unnamed_addr #5 align 2 personality ptr @__gxx_personality_v0 {
  store ptr getelementptr inbounds nuw inrange(-16, 24) (i8, ptr @_ZTVN7testing8internal24HasNewFatalFailureHelperE, i64 16), ptr %0, align 8
  %2 = load atomic i8, ptr @_ZGVZN7testing8UnitTest11GetInstanceEvE8instance acquire, align 8
  %3 = icmp eq i8 %2, 0
  br i1 %3, label %4, label %11, !prof !5

4:                                                ; preds = %1
  %5 = tail call i32 @__cxa_guard_acquire(ptr nonnull @_ZGVZN7testing8UnitTest11GetInstanceEvE8instance) #53
  %.not.i.i = icmp eq i32 %5, 0
  br i1 %.not.i.i, label %11, label %6

6:                                                ; preds = %4
  invoke void @_ZN7testing8UnitTestC2Ev(ptr noundef nonnull align 8 dereferenceable(24) @_ZZN7testing8UnitTest11GetInstanceEvE8instance)
          to label %7 unwind label %.body

7:                                                ; preds = %6
  %8 = tail call i32 @__cxa_atexit(ptr nonnull @_ZN7testing8UnitTestD2Ev, ptr nonnull @_ZZN7testing8UnitTest11GetInstanceEvE8instance, ptr nonnull @__dso_handle) #53
  tail call void @__cxa_guard_release(ptr nonnull @_ZGVZN7testing8UnitTest11GetInstanceEvE8instance) #53
  br label %11

.body:                                            ; preds = %6
  %9 = landingpad { ptr, i32 }
          catch ptr null
  tail call void @__cxa_guard_abort(ptr nonnull @_ZGVZN7testing8UnitTest11GetInstanceEvE8instance) #53
  %10 = extractvalue { ptr, i32 } %9, 0
  tail call void @__clang_call_terminate(ptr %10) #58
  unreachable

11:                                               ; preds = %1, %4, %7
  %12 = load ptr, ptr getelementptr inbounds nuw (i8, ptr @_ZZN7testing8UnitTest11GetInstanceEvE8instance, i64 16), align 8
  %13 = getelementptr inbounds nuw i8, ptr %0, i64 16
  %14 = load ptr, ptr %13, align 8
  %15 = getelementptr inbounds nuw i8, ptr %12, i64 96
  store ptr %14, ptr %15, align 8
  ret void
}